target datalayout = "e-m:e-p270:32:32-p271:32:32-p272:64:64-i64:64-i128:128-f80:128-n8:16:32:64-S128"
target triple = "x86_64-pc-linux-gnu"

%struct.AVClass = type { ptr, ptr, ptr, i32, i32, i32, i32, ptr, ptr, ptr, ptr, i32 }

@.str.7 = private unnamed_addr constant [15 x i8] c"%s AVOptions:\0A\00", align 1

; Function Attrs: nounwind uwtable
define i32 @av_opt_show2(ptr noundef %0, ptr noundef %1, i32 noundef %2, i32 noundef %3) #0 {
  %5 = alloca i32, align 4
  %6 = alloca ptr, align 8
  %7 = alloca ptr, align 8
  %8 = alloca i32, align 4
  %9 = alloca i32, align 4
  store ptr %0, ptr %6, align 8, !tbaa !4
  store ptr %1, ptr %7, align 8, !tbaa !4
  store i32 %2, ptr %8, align 4, !tbaa !20
  store i32 %3, ptr %9, align 4, !tbaa !20
  %10 = load ptr, ptr %6, align 8, !tbaa !4
  %11 = icmp ne ptr %10, null
  br i1 %11, label %13, label %12

12:                                               ; preds = %4
  store i32 -1, ptr %5, align 4
  br label %23

13:                                               ; preds = %4
  %14 = load ptr, ptr %7, align 8, !tbaa !4
  %15 = load ptr, ptr %6, align 8, !tbaa !4
  %16 = load ptr, ptr %15, align 8, !tbaa !10
  %17 = getelementptr inbounds nuw %struct.AVClass, ptr %16, i32 0, i32 0
  %18 = load ptr, ptr %17, align 8, !tbaa !80
  call void (ptr, i32, ptr, ...) @av_log(ptr noundef %14, i32 noundef 32, ptr noundef @.str.7, ptr noundef %18)
  %19 = load ptr, ptr %6, align 8, !tbaa !4
  %20 = load ptr, ptr %7, align 8, !tbaa !4
  %21 = load i32, ptr %8, align 4, !tbaa !20
  %22 = load i32, ptr %9, align 4, !tbaa !20
  call void @opt_list(ptr noundef %19, ptr noundef %20, ptr noundef null, i32 noundef %21, i32 noundef %22, i32 noundef -1)
  store i32 0, ptr %5, align 4
  br label %23

23:                                               ; preds = %13, %12
  %24 = load i32, ptr %5, align 4
  ret i32 %24
}