; Function Attrs: nounwind uwtable
define range(i32 -1, 1) i32 @av_opt_show2(ptr noundef %0, ptr noundef %1, i32 noundef %2, i32 noundef %3) local_unnamed_addr #2 {
  %.not = icmp eq ptr %0, null
  br i1 %.not, label %8, label %5

5:                                                ; preds = %4
  %6 = load ptr, ptr %0, align 8, !tbaa !4
  %7 = load ptr, ptr %6, align 8, !tbaa !69
  tail call void (ptr, i32, ptr, ...) @av_log(ptr noundef %1, i32 noundef 32, ptr noundef nonnull @.str.7, ptr noundef %7) #18
  tail call fastcc void @opt_list(ptr noundef %0, ptr noundef %1, ptr noundef null, i32 noundef %2, i32 noundef %3, i32 noundef -1)
  br label %8

8:                                                ; preds = %4, %5
  %.0 = phi i32 [ 0, %5 ], [ -1, %4 ]
  ret i32 %.0
}